target datalayout = "e-m:e-p270:32:32-p271:32:32-p272:64:64-i64:64-i128:128-f80:128-n8:16:32:64-S128"
target triple = "x86_64-pc-linux-gnu"

%struct.Aig_Tsi_t_ = type { ptr, i32, ptr, ptr, ptr, i32 }

; Function Attrs: inlinehint nounwind uwtable
define internal ptr @Aig_TsiNext(ptr noundef %0, i32 noundef %1) #4 {
  %3 = alloca ptr, align 8
  %4 = alloca i32, align 4
  store ptr %0, ptr %3, align 8, !tbaa !41
  store i32 %1, ptr %4, align 4, !tbaa !21
  %5 = load ptr, ptr %3, align 8, !tbaa !41
  %6 = load i32, ptr %4, align 4, !tbaa !21
  %7 = sext i32 %6 to i64
  %8 = getelementptr inbounds i32, ptr %5, i64 %7
  %9 = load ptr, ptr %8, align 8, !tbaa !41
  ret ptr %9
}

; Function Attrs: nounwind uwtable
define i32 @Aig_TsiStateHash(ptr noundef %0, i32 noundef %1, i32 noundef %2) #0 {
  %4 = alloca ptr, align 8
  %5 = alloca i32, align 4
  %6 = alloca i32, align 4
  %7 = alloca i32, align 4
  %8 = alloca i32, align 4
  store ptr %0, ptr %4, align 8, !tbaa !41
  store i32 %1, ptr %5, align 4, !tbaa !21
  store i32 %2, ptr %6, align 4, !tbaa !21
  call void @llvm.lifetime.start.p0(i64 4, ptr %7) #9
  call void @llvm.lifetime.start.p0(i64 4, ptr %8) #9
  store i32 0, ptr %7, align 4, !tbaa !21
  store i32 0, ptr %8, align 4, !tbaa !21
  br label %9

9:                                                ; preds = %27, %3
  %10 = load i32, ptr %8, align 4, !tbaa !21
  %11 = load i32, ptr %5, align 4, !tbaa !21
  %12 = icmp slt i32 %10, %11
  br i1 %12, label %13, label %30

13:                                               ; preds = %9
  %14 = load ptr, ptr %4, align 8, !tbaa !41
  %15 = load i32, ptr %8, align 4, !tbaa !21
  %16 = sext i32 %15 to i64
  %17 = getelementptr inbounds i32, ptr %14, i64 %16
  %18 = load i32, ptr %17, align 4, !tbaa !21
  %19 = load i32, ptr %8, align 4, !tbaa !21
  %20 = and i32 %19, 127
  %21 = sext i32 %20 to i64
  %22 = getelementptr inbounds [128 x i32], ptr @Aig_TsiStateHash.s_FPrimes, i64 0, i64 %21
  %23 = load i32, ptr %22, align 4, !tbaa !21
  %24 = mul i32 %18, %23
  %25 = load i32, ptr %7, align 4, !tbaa !21
  %26 = xor i32 %25, %24
  store i32 %26, ptr %7, align 4, !tbaa !21
  br label %27

27:                                               ; preds = %13
  %28 = load i32, ptr %8, align 4, !tbaa !21
  %29 = add nsw i32 %28, 1
  store i32 %29, ptr %8, align 4, !tbaa !21
  br label %9, !llvm.loop !42

30:                                               ; preds = %9
  %31 = load i32, ptr %7, align 4, !tbaa !21
  %32 = load i32, ptr %6, align 4, !tbaa !21
  %33 = urem i32 %31, %32
  call void @llvm.lifetime.end.p0(i64 4, ptr %8) #9
  call void @llvm.lifetime.end.p0(i64 4, ptr %7) #9
  ret i32 %33
}

; Function Attrs: nounwind uwtable
define i32 @Aig_TsiStateLookup(ptr noundef %0, ptr noundef %1, i32 noundef %2) #0 {
  %4 = alloca i32, align 4
  %5 = alloca ptr, align 8
  %6 = alloca ptr, align 8
  %7 = alloca i32, align 4
  %8 = alloca ptr, align 8
  %9 = alloca i32, align 4
  %10 = alloca i32, align 4
  store ptr %0, ptr %5, align 8, !tbaa !8
  store ptr %1, ptr %6, align 8, !tbaa !41
  store i32 %2, ptr %7, align 4, !tbaa !21
  call void @llvm.lifetime.start.p0(i64 8, ptr %8) #9
  call void @llvm.lifetime.start.p0(i64 4, ptr %9) #9
  %11 = load ptr, ptr %6, align 8, !tbaa !41
  %12 = load i32, ptr %7, align 4, !tbaa !21
  %13 = load ptr, ptr %5, align 8, !tbaa !8
  %14 = getelementptr inbounds nuw %struct.Aig_Tsi_t_, ptr %13, i32 0, i32 5
  %15 = load i32, ptr %14, align 8, !tbaa !19
  %16 = call i32 @Aig_TsiStateHash(ptr noundef %11, i32 noundef %12, i32 noundef %15)
  store i32 %16, ptr %9, align 4, !tbaa !21
  %17 = load ptr, ptr %5, align 8, !tbaa !8
  %18 = getelementptr inbounds nuw %struct.Aig_Tsi_t_, ptr %17, i32 0, i32 4
  %19 = load ptr, ptr %18, align 8, !tbaa !20
  %20 = load i32, ptr %9, align 4, !tbaa !21
  %21 = sext i32 %20 to i64
  %22 = getelementptr inbounds ptr, ptr %19, i64 %21
  %23 = load ptr, ptr %22, align 8, !tbaa !41
  store ptr %23, ptr %8, align 8, !tbaa !41
  br label %24

24:                                               ; preds = %37, %3
  %25 = load ptr, ptr %8, align 8, !tbaa !41
  %26 = icmp ne ptr %25, null
  br i1 %26, label %27, label %41

27:                                               ; preds = %24
  %28 = load ptr, ptr %8, align 8, !tbaa !41
  %29 = load ptr, ptr %6, align 8, !tbaa !41
  %30 = load i32, ptr %7, align 4, !tbaa !21
  %31 = sext i32 %30 to i64
  %32 = mul i64 4, %31
  %33 = call i32 @memcmp(ptr noundef %28, ptr noundef %29, i64 noundef %32) #11
  %34 = icmp ne i32 %33, 0
  br i1 %34, label %36, label %35

35:                                               ; preds = %27
  store i32 1, ptr %4, align 4
  store i32 1, ptr %10, align 4
  br label %42

36:                                               ; preds = %27
  br label %37

37:                                               ; preds = %36
  %38 = load ptr, ptr %8, align 8, !tbaa !41
  %39 = load i32, ptr %7, align 4, !tbaa !21
  %40 = call ptr @Aig_TsiNext(ptr noundef %38, i32 noundef %39)
  store ptr %40, ptr %8, align 8, !tbaa !41
  br label %24, !llvm.loop !43

41:                                               ; preds = %24
  store i32 0, ptr %4, align 4
  store i32 1, ptr %10, align 4
  br label %42

42:                                               ; preds = %41, %35
  call void @llvm.lifetime.end.p0(i64 4, ptr %9) #9
  call void @llvm.lifetime.end.p0(i64 8, ptr %8) #9
  %43 = load i32, ptr %4, align 4
  ret i32 %43
}