; Function Attrs: nofree nounwind memory(read, inaccessiblemem: none) uwtable
define range(i32 0, 2) i32 @Aig_TsiStateLookup(ptr noundef readonly captures(none) %0, ptr noundef readonly captures(none) %1, i32 noundef %2) local_unnamed_addr #6 {
  %4 = getelementptr inbounds nuw i8, ptr %0, i64 40
  %5 = load i32, ptr %4, align 8, !tbaa !34
  %6 = icmp sgt i32 %2, 0
  br i1 %6, label %.lr.ph.preheader.i, label %Aig_TsiStateHash.exit

.lr.ph.preheader.i:                               ; preds = %3
  %wide.trip.count.i = zext nneg i32 %2 to i64
  br label %.lr.ph.i

.lr.ph.i:                                         ; preds = %.lr.ph.i, %.lr.ph.preheader.i
  %indvars.iv.i = phi i64 [ 0, %.lr.ph.preheader.i ], [ %indvars.iv.next.i, %.lr.ph.i ]
  %.089.i = phi i32 [ 0, %.lr.ph.preheader.i ], [ %13, %.lr.ph.i ]
  %7 = getelementptr inbounds nuw i32, ptr %1, i64 %indvars.iv.i
  %8 = load i32, ptr %7, align 4, !tbaa !36
  %9 = and i64 %indvars.iv.i, 127
  %10 = getelementptr inbounds nuw [128 x i32], ptr @Aig_TsiStateHash.s_FPrimes, i64 0, i64 %9
  %11 = load i32, ptr %10, align 4, !tbaa !36
  %12 = mul i32 %11, %8
  %13 = xor i32 %12, %.089.i
  %indvars.iv.next.i = add nuw nsw i64 %indvars.iv.i, 1
  %exitcond.not.i = icmp eq i64 %indvars.iv.next.i, %wide.trip.count.i
  br i1 %exitcond.not.i, label %Aig_TsiStateHash.exit, label %.lr.ph.i, !llvm.loop !37

Aig_TsiStateHash.exit:                            ; preds = %.lr.ph.i, %3
  %.08.lcssa.i = phi i32 [ 0, %3 ], [ %13, %.lr.ph.i ]
  %14 = urem i32 %.08.lcssa.i, %5
  %15 = getelementptr inbounds nuw i8, ptr %0, i64 32
  %16 = load ptr, ptr %15, align 8, !tbaa !35
  %17 = sext i32 %14 to i64
  %18 = getelementptr inbounds ptr, ptr %16, i64 %17
  %19 = sext i32 %2 to i64
  %20 = shl nsw i64 %19, 2
  %.01113 = load ptr, ptr %18, align 8, !tbaa !38
  %.not14 = icmp eq ptr %.01113, null
  br i1 %.not14, label %._crit_edge, label %.lr.ph

.lr.ph:                                           ; preds = %Aig_TsiStateHash.exit, %21
  %.01115 = phi ptr [ %.011, %21 ], [ %.01113, %Aig_TsiStateHash.exit ]
  %bcmp = tail call i32 @bcmp(ptr nonnull %.01115, ptr %1, i64 %20)
  %.not12 = icmp eq i32 %bcmp, 0
  br i1 %.not12, label %._crit_edge, label %21

21:                                               ; preds = %.lr.ph
  %22 = getelementptr inbounds i32, ptr %.01115, i64 %19
  %.011 = load ptr, ptr %22, align 8, !tbaa !38
  %.not = icmp eq ptr %.011, null
  br i1 %.not, label %._crit_edge, label %.lr.ph, !llvm.loop !39

._crit_edge:                                      ; preds = %.lr.ph, %21, %Aig_TsiStateHash.exit
  %.0 = phi i32 [ 0, %Aig_TsiStateHash.exit ], [ 0, %21 ], [ 1, %.lr.ph ]
  ret i32 %.0
}